; Function Attrs: mustprogress uwtable
define noundef zeroext i1 @_ZN3g2o13VertexPointXY4readERSi(ptr noundef nonnull align 16 dereferenceable(200) %0, ptr noundef nonnull align 8 dereferenceable(16) %1) unnamed_addr #4 align 2 personality ptr @__gxx_personality_v0 {
  %3 = getelementptr inbounds nuw i8, ptr %0, i64 160
  %invariant.gep.i = getelementptr i8, ptr %1, i64 32
  br label %4

4:                                                ; preds = %11, %2
  %5 = phi i1 [ true, %2 ], [ false, %11 ]
  %indvars.iv.i = phi i64 [ 0, %2 ], [ 1, %11 ]
  %6 = load ptr, ptr %1, align 8, !tbaa !31
  %7 = getelementptr i8, ptr %6, i64 -24
  %8 = load i64, ptr %7, align 8
  %gep.i = getelementptr i8, ptr %invariant.gep.i, i64 %8
  %9 = load i32, ptr %gep.i, align 8, !tbaa !35
  %10 = icmp eq i32 %9, 0
  br i1 %10, label %11, label %_ZN3g2o8internal10readVectorIN5Eigen6MatrixIdLi2ELi1ELi0ELi2ELi1EEEEEbRSiRNS2_9DenseBaseIT_EE.exit

11:                                               ; preds = %4
  %12 = getelementptr inbounds nuw double, ptr %3, i64 %indvars.iv.i
  %13 = tail call noundef nonnull align 8 dereferenceable(16) ptr @_ZNSi10_M_extractIdEERSiRT_(ptr noundef nonnull align 8 dereferenceable(16) %1, ptr noundef nonnull align 8 dereferenceable(8) %12)
  br i1 %5, label %4, label %..critedge_crit_edge.i, !llvm.loop !44

..critedge_crit_edge.i:                           ; preds = %11
  %.pre.i = load ptr, ptr %1, align 8, !tbaa !31
  %.phi.trans.insert.i = getelementptr i8, ptr %.pre.i, i64 -24
  %.pre11.i = load i64, ptr %.phi.trans.insert.i, align 8
  br label %_ZN3g2o8internal10readVectorIN5Eigen6MatrixIdLi2ELi1ELi0ELi2ELi1EEEEEbRSiRNS2_9DenseBaseIT_EE.exit

_ZN3g2o8internal10readVectorIN5Eigen6MatrixIdLi2ELi1ELi0ELi2ELi1EEEEEbRSiRNS2_9DenseBaseIT_EE.exit: ; preds = %4, %..critedge_crit_edge.i
  %14 = phi i64 [ %.pre11.i, %..critedge_crit_edge.i ], [ %8, %4 ]
  %15 = getelementptr inbounds i8, ptr %1, i64 %14
  %16 = getelementptr inbounds nuw i8, ptr %15, i64 32
  %17 = load i32, ptr %16, align 8, !tbaa !35
  %18 = icmp eq i32 %17, 0
  %19 = and i32 %17, 2
  %20 = icmp ne i32 %19, 0
  %21 = or i1 %18, %20
  ret i1 %21
}